; ModuleID = '21/1693.c'
source_filename = "21/1693.c"
target datalayout = "e-m:e-p270:32:32-p271:32:32-p272:64:64-i64:64-f80:128-n8:16:32:64-S128"
target triple = "x86_64-pc-linux-gnu"

@.str = private unnamed_addr constant [3 x i8] c"%d\00", align 1
@.str.1 = private unnamed_addr constant [4 x i8] c",%d\00", align 1

; Function Attrs: noinline nounwind uwtable
define dso_local void @main() #0 {
  %1 = alloca i32, align 4
  %2 = alloca i32, align 4
  %3 = alloca [300 x i32], align 16
  %4 = alloca [300 x i32], align 16
  %5 = alloca i32, align 4
  %6 = alloca i32, align 4
  %7 = alloca i32, align 4
  %8 = alloca float, align 4
  %9 = alloca float, align 4
  %10 = alloca [300 x float], align 16
  %11 = alloca float, align 4
  store i32 1, i32* %6, align 4
  store float 0.000000e+00, float* %9, align 4
  %12 = call i32 (i8*, ...) @__isoc99_scanf(i8* getelementptr inbounds ([3 x i8], [3 x i8]* @.str, i64 0, i64 0), i32* %1)
  store i32 0, i32* %2, align 4
  br label %13

13:                                               ; preds = %35, %0
  %14 = load i32, i32* %2, align 4
  %15 = load i32, i32* %1, align 4
  %16 = icmp slt i32 %14, %15
  br i1 %16, label %17, label %38

17:                                               ; preds = %13
  %18 = load i32, i32* %2, align 4
  %19 = sext i32 %18 to i64
  %20 = getelementptr inbounds [300 x i32], [300 x i32]* %3, i64 0, i64 %19
  %21 = call i32 (i8*, ...) @__isoc99_scanf(i8* getelementptr inbounds ([3 x i8], [3 x i8]* @.str, i64 0, i64 0), i32* %20)
  %22 = load float, float* %9, align 4
  %23 = load i32, i32* %2, align 4
  %24 = sext i32 %23 to i64
  %25 = getelementptr inbounds [300 x i32], [300 x i32]* %3, i64 0, i64 %24
  %26 = load i32, i32* %25, align 4
  %27 = sitofp i32 %26 to float
  %28 = fadd float %22, %27
  store float %28, float* %9, align 4
  %29 = load i32, i32* %2, align 4
  %30 = sext i32 %29 to i64
  %31 = getelementptr inbounds [300 x float], [300 x float]* %10, i64 0, i64 %30
  store float 0.000000e+00, float* %31, align 4
  %32 = load i32, i32* %2, align 4
  %33 = sext i32 %32 to i64
  %34 = getelementptr inbounds [300 x i32], [300 x i32]* %4, i64 0, i64 %33
  store i32 0, i32* %34, align 4
  br label %35

35:                                               ; preds = %17
  %36 = load i32, i32* %2, align 4
  %37 = add nsw i32 %36, 1
  store i32 %37, i32* %2, align 4
  br label %13

38:                                               ; preds = %13
  %39 = load float, float* %9, align 4
  %40 = load i32, i32* %1, align 4
  %41 = sitofp i32 %40 to float
  %42 = fdiv float %39, %41
  store float %42, float* %8, align 4
  store i32 0, i32* %2, align 4
  br label %43

43:                                               ; preds = %135, %38
  %44 = load i32, i32* %2, align 4
  %45 = load i32, i32* %1, align 4
  %46 = icmp slt i32 %44, %45
  br i1 %46, label %47, label %138

47:                                               ; preds = %43
  %48 = load float, float* %8, align 4
  %49 = load i32, i32* %2, align 4
  %50 = sext i32 %49 to i64
  %51 = getelementptr inbounds [300 x i32], [300 x i32]* %3, i64 0, i64 %50
  %52 = load i32, i32* %51, align 4
  %53 = sitofp i32 %52 to float
  %54 = fcmp oge float %48, %53
  br i1 %54, label %55, label %66

55:                                               ; preds = %47
  %56 = load float, float* %8, align 4
  %57 = load i32, i32* %2, align 4
  %58 = sext i32 %57 to i64
  %59 = getelementptr inbounds [300 x i32], [300 x i32]* %3, i64 0, i64 %58
  %60 = load i32, i32* %59, align 4
  %61 = sitofp i32 %60 to float
  %62 = fsub float %56, %61
  %63 = load i32, i32* %2, align 4
  %64 = sext i32 %63 to i64
  %65 = getelementptr inbounds [300 x float], [300 x float]* %10, i64 0, i64 %64
  store float %62, float* %65, align 4
  br label %77

66:                                               ; preds = %47
  %67 = load i32, i32* %2, align 4
  %68 = sext i32 %67 to i64
  %69 = getelementptr inbounds [300 x i32], [300 x i32]* %3, i64 0, i64 %68
  %70 = load i32, i32* %69, align 4
  %71 = sitofp i32 %70 to float
  %72 = load float, float* %8, align 4
  %73 = fsub float %71, %72
  %74 = load i32, i32* %2, align 4
  %75 = sext i32 %74 to i64
  %76 = getelementptr inbounds [300 x float], [300 x float]* %10, i64 0, i64 %75
  store float %73, float* %76, align 4
  br label %77

77:                                               ; preds = %66, %55
  %78 = load i32, i32* %2, align 4
  %79 = icmp sgt i32 %78, 0
  br i1 %79, label %80, label %128

80:                                               ; preds = %77
  %81 = load i32, i32* %2, align 4
  %82 = sext i32 %81 to i64
  %83 = getelementptr inbounds [300 x float], [300 x float]* %10, i64 0, i64 %82
  %84 = load float, float* %83, align 4
  %85 = load float, float* %11, align 4
  %86 = fcmp ogt float %84, %85
  br i1 %86, label %87, label %109

87:                                               ; preds = %80
  %88 = load i32, i32* %2, align 4
  %89 = sext i32 %88 to i64
  %90 = getelementptr inbounds [300 x float], [300 x float]* %10, i64 0, i64 %89
  %91 = load float, float* %90, align 4
  store float %91, float* %11, align 4
  store i32 0, i32* %5, align 4
  br label %92

92:                                               ; preds = %100, %87
  %93 = load i32, i32* %5, align 4
  %94 = load i32, i32* %6, align 4
  %95 = icmp slt i32 %93, %94
  br i1 %95, label %96, label %103

96:                                               ; preds = %92
  %97 = load i32, i32* %5, align 4
  %98 = sext i32 %97 to i64
  %99 = getelementptr inbounds [300 x i32], [300 x i32]* %4, i64 0, i64 %98
  store i32 0, i32* %99, align 4
  br label %100

100:                                              ; preds = %96
  %101 = load i32, i32* %5, align 4
  %102 = add nsw i32 %101, 1
  store i32 %102, i32* %5, align 4
  br label %92

103:                                              ; preds = %92
  %104 = load i32, i32* %2, align 4
  %105 = sext i32 %104 to i64
  %106 = getelementptr inbounds [300 x i32], [300 x i32]* %3, i64 0, i64 %105
  %107 = load i32, i32* %106, align 4
  %108 = getelementptr inbounds [300 x i32], [300 x i32]* %4, i64 0, i64 0
  store i32 %107, i32* %108, align 16
  store i32 1, i32* %6, align 4
  br label %127

109:                                              ; preds = %80
  %110 = load i32, i32* %2, align 4
  %111 = sext i32 %110 to i64
  %112 = getelementptr inbounds [300 x float], [300 x float]* %10, i64 0, i64 %111
  %113 = load float, float* %112, align 4
  %114 = load float, float* %11, align 4
  %115 = fcmp oeq float %113, %114
  br i1 %115, label %116, label %126

116:                                              ; preds = %109
  %117 = load i32, i32* %2, align 4
  %118 = sext i32 %117 to i64
  %119 = getelementptr inbounds [300 x i32], [300 x i32]* %3, i64 0, i64 %118
  %120 = load i32, i32* %119, align 4
  %121 = load i32, i32* %6, align 4
  %122 = sext i32 %121 to i64
  %123 = getelementptr inbounds [300 x i32], [300 x i32]* %4, i64 0, i64 %122
  store i32 %120, i32* %123, align 4
  %124 = load i32, i32* %6, align 4
  %125 = add nsw i32 %124, 1
  store i32 %125, i32* %6, align 4
  br label %126

126:                                              ; preds = %116, %109
  br label %127

127:                                              ; preds = %126, %103
  br label %134

128:                                              ; preds = %77
  %129 = getelementptr inbounds [300 x float], [300 x float]* %10, i64 0, i64 0
  %130 = load float, float* %129, align 16
  store float %130, float* %11, align 4
  %131 = getelementptr inbounds [300 x i32], [300 x i32]* %3, i64 0, i64 0
  %132 = load i32, i32* %131, align 16
  %133 = getelementptr inbounds [300 x i32], [300 x i32]* %4, i64 0, i64 0
  store i32 %132, i32* %133, align 16
  br label %134

134:                                              ; preds = %128, %127
  br label %135

135:                                              ; preds = %134
  %136 = load i32, i32* %2, align 4
  %137 = add nsw i32 %136, 1
  store i32 %137, i32* %2, align 4
  br label %43

138:                                              ; preds = %43
  store i32 0, i32* %5, align 4
  br label %139

139:                                              ; preds = %185, %138
  %140 = load i32, i32* %5, align 4
  %141 = load i32, i32* %6, align 4
  %142 = icmp slt i32 %140, %141
  br i1 %142, label %143, label %188

143:                                              ; preds = %139
  store i32 0, i32* %2, align 4
  br label %144

144:                                              ; preds = %181, %143
  %145 = load i32, i32* %2, align 4
  %146 = load i32, i32* %6, align 4
  %147 = sub nsw i32 %146, 1
  %148 = load i32, i32* %5, align 4
  %149 = sub nsw i32 %147, %148
  %150 = icmp slt i32 %145, %149
  br i1 %150, label %151, label %184

151:                                              ; preds = %144
  %152 = load i32, i32* %2, align 4
  %153 = sext i32 %152 to i64
  %154 = getelementptr inbounds [300 x i32], [300 x i32]* %4, i64 0, i64 %153
  %155 = load i32, i32* %154, align 4
  %156 = load i32, i32* %2, align 4
  %157 = add nsw i32 %156, 1
  %158 = sext i32 %157 to i64
  %159 = getelementptr inbounds [300 x i32], [300 x i32]* %4, i64 0, i64 %158
  %160 = load i32, i32* %159, align 4
  %161 = icmp sgt i32 %155, %160
  br i1 %161, label %162, label %180

162:                                              ; preds = %151
  %163 = load i32, i32* %2, align 4
  %164 = sext i32 %163 to i64
  %165 = getelementptr inbounds [300 x i32], [300 x i32]* %4, i64 0, i64 %164
  %166 = load i32, i32* %165, align 4
  store i32 %166, i32* %7, align 4
  %167 = load i32, i32* %2, align 4
  %168 = add nsw i32 %167, 1
  %169 = sext i32 %168 to i64
  %170 = getelementptr inbounds [300 x i32], [300 x i32]* %4, i64 0, i64 %169
  %171 = load i32, i32* %170, align 4
  %172 = load i32, i32* %2, align 4
  %173 = sext i32 %172 to i64
  %174 = getelementptr inbounds [300 x i32], [300 x i32]* %4, i64 0, i64 %173
  store i32 %171, i32* %174, align 4
  %175 = load i32, i32* %7, align 4
  %176 = load i32, i32* %2, align 4
  %177 = add nsw i32 %176, 1
  %178 = sext i32 %177 to i64
  %179 = getelementptr inbounds [300 x i32], [300 x i32]* %4, i64 0, i64 %178
  store i32 %175, i32* %179, align 4
  br label %180

180:                                              ; preds = %162, %151
  br label %181

181:                                              ; preds = %180
  %182 = load i32, i32* %2, align 4
  %183 = add nsw i32 %182, 1
  store i32 %183, i32* %2, align 4
  br label %144

184:                                              ; preds = %144
  br label %185

185:                                              ; preds = %184
  %186 = load i32, i32* %5, align 4
  %187 = add nsw i32 %186, 1
  store i32 %187, i32* %5, align 4
  br label %139

188:                                              ; preds = %139
  %189 = getelementptr inbounds [300 x i32], [300 x i32]* %4, i64 0, i64 0
  %190 = load i32, i32* %189, align 16
  %191 = call i32 (i8*, ...) @printf(i8* getelementptr inbounds ([3 x i8], [3 x i8]* @.str, i64 0, i64 0), i32 %190)
  store i32 1, i32* %2, align 4
  br label %192

192:                                              ; preds = %202, %188
  %193 = load i32, i32* %2, align 4
  %194 = load i32, i32* %6, align 4
  %195 = icmp slt i32 %193, %194
  br i1 %195, label %196, label %205

196:                                              ; preds = %192
  %197 = load i32, i32* %2, align 4
  %198 = sext i32 %197 to i64
  %199 = getelementptr inbounds [300 x i32], [300 x i32]* %4, i64 0, i64 %198
  %200 = load i32, i32* %199, align 4
  %201 = call i32 (i8*, ...) @printf(i8* getelementptr inbounds ([4 x i8], [4 x i8]* @.str.1, i64 0, i64 0), i32 %200)
  br label %202

202:                                              ; preds = %196
  %203 = load i32, i32* %2, align 4
  %204 = add nsw i32 %203, 1
  store i32 %204, i32* %2, align 4
  br label %192

205:                                              ; preds = %192
  ret void
}

declare dso_local i32 @__isoc99_scanf(i8*, ...) #1

declare dso_local i32 @printf(i8*, ...) #1


!llvm.module.flags = !{!0}
!llvm.ident = !{!1}

!0 = !{i32 1, !"wchar_size", i32 4}
!1 = !{!"clang version 10.0.0-4ubuntu1 "}
